target datalayout = "e-m:e-p270:32:32-p271:32:32-p272:64:64-i64:64-i128:128-f80:128-n8:16:32:64-S128"
target triple = "x86_64-pc-linux-gnu"

%struct.ExplainState = type { ptr, i8, i8, i8, i8, i8, i8, i8, i8, i8, i8, i32, i32, i32, ptr, ptr, ptr, ptr, ptr, ptr, i8, i32, ptr }
%struct.StringInfoData = type { ptr, i32, i32, i32 }
%struct.ExplainWorkersState = type { i32, ptr, ptr, ptr, ptr }

@.str.54 = private unnamed_addr constant [4 x i8] c"%ld\00", align 1
@.str.254 = private unnamed_addr constant [7 x i8] c"Worker\00", align 1
@.str.255 = private unnamed_addr constant [14 x i8] c"Worker Number\00", align 1
@.str.256 = private unnamed_addr constant [13 x i8] c"Worker %d:  \00", align 1

; Function Attrs: nounwind uwtable
define internal void @ExplainIndentText(ptr noundef %0) #0 {
  %2 = alloca ptr, align 8
  store ptr %0, ptr %2, align 8
  %3 = load ptr, ptr %2, align 8
  %4 = getelementptr inbounds nuw %struct.ExplainState, ptr %3, i32 0, i32 0
  %5 = load ptr, ptr %4, align 8
  %6 = getelementptr inbounds nuw %struct.StringInfoData, ptr %5, i32 0, i32 1
  %7 = load i32, ptr %6, align 8
  %8 = icmp eq i32 %7, 0
  br i1 %8, label %26, label %9

9:                                                ; preds = %1
  %10 = load ptr, ptr %2, align 8
  %11 = getelementptr inbounds nuw %struct.ExplainState, ptr %10, i32 0, i32 0
  %12 = load ptr, ptr %11, align 8
  %13 = getelementptr inbounds nuw %struct.StringInfoData, ptr %12, i32 0, i32 0
  %14 = load ptr, ptr %13, align 8
  %15 = load ptr, ptr %2, align 8
  %16 = getelementptr inbounds nuw %struct.ExplainState, ptr %15, i32 0, i32 0
  %17 = load ptr, ptr %16, align 8
  %18 = getelementptr inbounds nuw %struct.StringInfoData, ptr %17, i32 0, i32 1
  %19 = load i32, ptr %18, align 8
  %20 = sub i32 %19, 1
  %21 = sext i32 %20 to i64
  %22 = getelementptr inbounds i8, ptr %14, i64 %21
  %23 = load i8, ptr %22, align 1
  %24 = sext i8 %23 to i32
  %25 = icmp eq i32 %24, 10
  br i1 %25, label %26, label %34

26:                                               ; preds = %9, %1
  %27 = load ptr, ptr %2, align 8
  %28 = getelementptr inbounds nuw %struct.ExplainState, ptr %27, i32 0, i32 0
  %29 = load ptr, ptr %28, align 8
  %30 = load ptr, ptr %2, align 8
  %31 = getelementptr inbounds nuw %struct.ExplainState, ptr %30, i32 0, i32 13
  %32 = load i32, ptr %31, align 4
  %33 = mul i32 %32, 2
  call void @appendStringInfoSpaces(ptr noundef %29, i32 noundef %33)
  br label %34

34:                                               ; preds = %26, %9
  ret void
}

; Function Attrs: nounwind uwtable
define internal void @ExplainRestoreGroup(ptr noundef %0, i32 noundef %1, ptr noundef %2) #0 {
  %4 = alloca ptr, align 8
  %5 = alloca i32, align 4
  %6 = alloca ptr, align 8
  store ptr %0, ptr %4, align 8
  store i32 %1, ptr %5, align 4
  store ptr %2, ptr %6, align 8
  %7 = load ptr, ptr %4, align 8
  %8 = getelementptr inbounds nuw %struct.ExplainState, ptr %7, i32 0, i32 12
  %9 = load i32, ptr %8, align 8
  switch i32 %9, label %44 [
    i32 0, label %44
    i32 1, label %10
    i32 2, label %16
    i32 3, label %30
  ]

10:                                               ; preds = %3
  %11 = load i32, ptr %5, align 4
  %12 = load ptr, ptr %4, align 8
  %13 = getelementptr inbounds nuw %struct.ExplainState, ptr %12, i32 0, i32 13
  %14 = load i32, ptr %13, align 4
  %15 = add i32 %14, %11
  store i32 %15, ptr %13, align 4
  br label %44

16:                                               ; preds = %3
  %17 = load ptr, ptr %6, align 8
  %18 = load i32, ptr %17, align 4
  %19 = load ptr, ptr %4, align 8
  %20 = getelementptr inbounds nuw %struct.ExplainState, ptr %19, i32 0, i32 14
  %21 = load ptr, ptr %20, align 8
  %22 = call ptr @lcons_int(i32 noundef %18, ptr noundef %21)
  %23 = load ptr, ptr %4, align 8
  %24 = getelementptr inbounds nuw %struct.ExplainState, ptr %23, i32 0, i32 14
  store ptr %22, ptr %24, align 8
  %25 = load i32, ptr %5, align 4
  %26 = load ptr, ptr %4, align 8
  %27 = getelementptr inbounds nuw %struct.ExplainState, ptr %26, i32 0, i32 13
  %28 = load i32, ptr %27, align 4
  %29 = add i32 %28, %25
  store i32 %29, ptr %27, align 4
  br label %44

30:                                               ; preds = %3
  %31 = load ptr, ptr %6, align 8
  %32 = load i32, ptr %31, align 4
  %33 = load ptr, ptr %4, align 8
  %34 = getelementptr inbounds nuw %struct.ExplainState, ptr %33, i32 0, i32 14
  %35 = load ptr, ptr %34, align 8
  %36 = call ptr @lcons_int(i32 noundef %32, ptr noundef %35)
  %37 = load ptr, ptr %4, align 8
  %38 = getelementptr inbounds nuw %struct.ExplainState, ptr %37, i32 0, i32 14
  store ptr %36, ptr %38, align 8
  %39 = load i32, ptr %5, align 4
  %40 = load ptr, ptr %4, align 8
  %41 = getelementptr inbounds nuw %struct.ExplainState, ptr %40, i32 0, i32 13
  %42 = load i32, ptr %41, align 4
  %43 = add i32 %42, %39
  store i32 %43, ptr %41, align 4
  br label %44

44:                                               ; preds = %3, %30, %16, %10, %3
  ret void
}

; Function Attrs: nounwind uwtable
define dso_local void @ExplainPropertyInteger(ptr noundef %0, ptr noundef %1, i64 noundef %2, ptr noundef %3) #0 {
  %5 = alloca ptr, align 8
  %6 = alloca ptr, align 8
  %7 = alloca i64, align 8
  %8 = alloca ptr, align 8
  %9 = alloca [32 x i8], align 16
  store ptr %0, ptr %5, align 8
  store ptr %1, ptr %6, align 8
  store i64 %2, ptr %7, align 8
  store ptr %3, ptr %8, align 8
  call void @llvm.lifetime.start.p0(i64 32, ptr %9) #10
  %10 = getelementptr inbounds [32 x i8], ptr %9, i64 0, i64 0
  %11 = load i64, ptr %7, align 8
  %12 = call i32 (ptr, i64, ptr, ...) @pg_snprintf(ptr noundef %10, i64 noundef 32, ptr noundef @.str.54, i64 noundef %11)
  %13 = load ptr, ptr %5, align 8
  %14 = load ptr, ptr %6, align 8
  %15 = getelementptr inbounds [32 x i8], ptr %9, i64 0, i64 0
  %16 = load ptr, ptr %8, align 8
  call void @ExplainProperty(ptr noundef %13, ptr noundef %14, ptr noundef %15, i1 noundef zeroext true, ptr noundef %16)
  call void @llvm.lifetime.end.p0(i64 32, ptr %9) #10
  ret void
}

; Function Attrs: nounwind uwtable
define internal void @ExplainOpenSetAsideGroup(ptr noundef %0, ptr noundef %1, i1 noundef zeroext %2, i32 noundef %3, ptr noundef %4) #0 {
  %6 = alloca ptr, align 8
  %7 = alloca ptr, align 8
  %8 = alloca i8, align 1
  %9 = alloca i32, align 4
  %10 = alloca ptr, align 8
  store ptr %0, ptr %6, align 8
  store ptr %1, ptr %7, align 8
  %11 = zext i1 %2 to i8
  store i8 %11, ptr %8, align 1
  store i32 %3, ptr %9, align 4
  store ptr %4, ptr %10, align 8
  %12 = load ptr, ptr %10, align 8
  %13 = getelementptr inbounds nuw %struct.ExplainState, ptr %12, i32 0, i32 12
  %14 = load i32, ptr %13, align 8
  switch i32 %14, label %56 [
    i32 0, label %56
    i32 1, label %15
    i32 2, label %21
    i32 3, label %33
  ]

15:                                               ; preds = %5
  %16 = load i32, ptr %9, align 4
  %17 = load ptr, ptr %10, align 8
  %18 = getelementptr inbounds nuw %struct.ExplainState, ptr %17, i32 0, i32 13
  %19 = load i32, ptr %18, align 4
  %20 = add i32 %19, %16
  store i32 %20, ptr %18, align 4
  br label %56

21:                                               ; preds = %5
  %22 = load ptr, ptr %10, align 8
  %23 = getelementptr inbounds nuw %struct.ExplainState, ptr %22, i32 0, i32 14
  %24 = load ptr, ptr %23, align 8
  %25 = call ptr @lcons_int(i32 noundef 0, ptr noundef %24)
  %26 = load ptr, ptr %10, align 8
  %27 = getelementptr inbounds nuw %struct.ExplainState, ptr %26, i32 0, i32 14
  store ptr %25, ptr %27, align 8
  %28 = load i32, ptr %9, align 4
  %29 = load ptr, ptr %10, align 8
  %30 = getelementptr inbounds nuw %struct.ExplainState, ptr %29, i32 0, i32 13
  %31 = load i32, ptr %30, align 4
  %32 = add i32 %31, %28
  store i32 %32, ptr %30, align 4
  br label %56

33:                                               ; preds = %5
  %34 = load ptr, ptr %7, align 8
  %35 = icmp ne ptr %34, null
  br i1 %35, label %36, label %43

36:                                               ; preds = %33
  %37 = load ptr, ptr %10, align 8
  %38 = getelementptr inbounds nuw %struct.ExplainState, ptr %37, i32 0, i32 14
  %39 = load ptr, ptr %38, align 8
  %40 = call ptr @lcons_int(i32 noundef 1, ptr noundef %39)
  %41 = load ptr, ptr %10, align 8
  %42 = getelementptr inbounds nuw %struct.ExplainState, ptr %41, i32 0, i32 14
  store ptr %40, ptr %42, align 8
  br label %50

43:                                               ; preds = %33
  %44 = load ptr, ptr %10, align 8
  %45 = getelementptr inbounds nuw %struct.ExplainState, ptr %44, i32 0, i32 14
  %46 = load ptr, ptr %45, align 8
  %47 = call ptr @lcons_int(i32 noundef 0, ptr noundef %46)
  %48 = load ptr, ptr %10, align 8
  %49 = getelementptr inbounds nuw %struct.ExplainState, ptr %48, i32 0, i32 14
  store ptr %47, ptr %49, align 8
  br label %50

50:                                               ; preds = %43, %36
  %51 = load i32, ptr %9, align 4
  %52 = load ptr, ptr %10, align 8
  %53 = getelementptr inbounds nuw %struct.ExplainState, ptr %52, i32 0, i32 13
  %54 = load i32, ptr %53, align 4
  %55 = add i32 %54, %51
  store i32 %55, ptr %53, align 4
  br label %56

56:                                               ; preds = %5, %50, %21, %15, %5
  ret void
}

; Function Attrs: nounwind uwtable
define internal void @ExplainOpenWorker(i32 noundef %0, ptr noundef %1) #0 {
  %3 = alloca i32, align 4
  %4 = alloca ptr, align 8
  %5 = alloca ptr, align 8
  store i32 %0, ptr %3, align 4
  store ptr %1, ptr %4, align 8
  call void @llvm.lifetime.start.p0(i64 8, ptr %5) #10
  %6 = load ptr, ptr %4, align 8
  %7 = getelementptr inbounds nuw %struct.ExplainState, ptr %6, i32 0, i32 22
  %8 = load ptr, ptr %7, align 8
  store ptr %8, ptr %5, align 8
  %9 = load ptr, ptr %4, align 8
  %10 = getelementptr inbounds nuw %struct.ExplainState, ptr %9, i32 0, i32 0
  %11 = load ptr, ptr %10, align 8
  %12 = load ptr, ptr %5, align 8
  %13 = getelementptr inbounds nuw %struct.ExplainWorkersState, ptr %12, i32 0, i32 4
  store ptr %11, ptr %13, align 8
  %14 = load ptr, ptr %5, align 8
  %15 = getelementptr inbounds nuw %struct.ExplainWorkersState, ptr %14, i32 0, i32 1
  %16 = load ptr, ptr %15, align 8
  %17 = load i32, ptr %3, align 4
  %18 = sext i32 %17 to i64
  %19 = getelementptr inbounds i8, ptr %16, i64 %18
  %20 = load i8, ptr %19, align 1, !range !6, !noundef !7
  %21 = trunc i8 %20 to i1
  br i1 %21, label %53, label %22

22:                                               ; preds = %2
  %23 = load ptr, ptr %5, align 8
  %24 = getelementptr inbounds nuw %struct.ExplainWorkersState, ptr %23, i32 0, i32 2
  %25 = load ptr, ptr %24, align 8
  %26 = load i32, ptr %3, align 4
  %27 = sext i32 %26 to i64
  %28 = getelementptr inbounds %struct.StringInfoData, ptr %25, i64 %27
  call void @initStringInfo(ptr noundef %28)
  %29 = load ptr, ptr %5, align 8
  %30 = getelementptr inbounds nuw %struct.ExplainWorkersState, ptr %29, i32 0, i32 2
  %31 = load ptr, ptr %30, align 8
  %32 = load i32, ptr %3, align 4
  %33 = sext i32 %32 to i64
  %34 = getelementptr inbounds %struct.StringInfoData, ptr %31, i64 %33
  %35 = load ptr, ptr %4, align 8
  %36 = getelementptr inbounds nuw %struct.ExplainState, ptr %35, i32 0, i32 0
  store ptr %34, ptr %36, align 8
  %37 = load ptr, ptr %4, align 8
  call void @ExplainOpenSetAsideGroup(ptr noundef @.str.254, ptr noundef null, i1 noundef zeroext true, i32 noundef 2, ptr noundef %37)
  %38 = load ptr, ptr %4, align 8
  %39 = getelementptr inbounds nuw %struct.ExplainState, ptr %38, i32 0, i32 12
  %40 = load i32, ptr %39, align 8
  %41 = icmp ne i32 %40, 0
  br i1 %41, label %42, label %46

42:                                               ; preds = %22
  %43 = load i32, ptr %3, align 4
  %44 = sext i32 %43 to i64
  %45 = load ptr, ptr %4, align 8
  call void @ExplainPropertyInteger(ptr noundef @.str.255, ptr noundef null, i64 noundef %44, ptr noundef %45)
  br label %46

46:                                               ; preds = %42, %22
  %47 = load ptr, ptr %5, align 8
  %48 = getelementptr inbounds nuw %struct.ExplainWorkersState, ptr %47, i32 0, i32 1
  %49 = load ptr, ptr %48, align 8
  %50 = load i32, ptr %3, align 4
  %51 = sext i32 %50 to i64
  %52 = getelementptr inbounds i8, ptr %49, i64 %51
  store i8 1, ptr %52, align 1
  br label %69

53:                                               ; preds = %2
  %54 = load ptr, ptr %5, align 8
  %55 = getelementptr inbounds nuw %struct.ExplainWorkersState, ptr %54, i32 0, i32 2
  %56 = load ptr, ptr %55, align 8
  %57 = load i32, ptr %3, align 4
  %58 = sext i32 %57 to i64
  %59 = getelementptr inbounds %struct.StringInfoData, ptr %56, i64 %58
  %60 = load ptr, ptr %4, align 8
  %61 = getelementptr inbounds nuw %struct.ExplainState, ptr %60, i32 0, i32 0
  store ptr %59, ptr %61, align 8
  %62 = load ptr, ptr %4, align 8
  %63 = load ptr, ptr %5, align 8
  %64 = getelementptr inbounds nuw %struct.ExplainWorkersState, ptr %63, i32 0, i32 3
  %65 = load ptr, ptr %64, align 8
  %66 = load i32, ptr %3, align 4
  %67 = sext i32 %66 to i64
  %68 = getelementptr inbounds i32, ptr %65, i64 %67
  call void @ExplainRestoreGroup(ptr noundef %62, i32 noundef 2, ptr noundef %68)
  br label %69

69:                                               ; preds = %53, %46
  %70 = load ptr, ptr %4, align 8
  %71 = getelementptr inbounds nuw %struct.ExplainState, ptr %70, i32 0, i32 12
  %72 = load i32, ptr %71, align 8
  %73 = icmp eq i32 %72, 0
  br i1 %73, label %74, label %92

74:                                               ; preds = %69
  %75 = load ptr, ptr %4, align 8
  %76 = getelementptr inbounds nuw %struct.ExplainState, ptr %75, i32 0, i32 0
  %77 = load ptr, ptr %76, align 8
  %78 = getelementptr inbounds nuw %struct.StringInfoData, ptr %77, i32 0, i32 1
  %79 = load i32, ptr %78, align 8
  %80 = icmp eq i32 %79, 0
  br i1 %80, label %81, label %87

81:                                               ; preds = %74
  %82 = load ptr, ptr %4, align 8
  call void @ExplainIndentText(ptr noundef %82)
  %83 = load ptr, ptr %4, align 8
  %84 = getelementptr inbounds nuw %struct.ExplainState, ptr %83, i32 0, i32 0
  %85 = load ptr, ptr %84, align 8
  %86 = load i32, ptr %3, align 4
  call void (ptr, ptr, ...) @appendStringInfo(ptr noundef %85, ptr noundef @.str.256, i32 noundef %86)
  br label %87

87:                                               ; preds = %81, %74
  %88 = load ptr, ptr %4, align 8
  %89 = getelementptr inbounds nuw %struct.ExplainState, ptr %88, i32 0, i32 13
  %90 = load i32, ptr %89, align 4
  %91 = add i32 %90, 1
  store i32 %91, ptr %89, align 4
  br label %92

92:                                               ; preds = %87, %69
  call void @llvm.lifetime.end.p0(i64 8, ptr %5) #10
  ret void
}