; Function Attrs: nounwind uwtable
define internal fastcc void @ExplainOpenWorker(i32 noundef %0, ptr noundef captures(none) %1) unnamed_addr #0 {
  %3 = alloca [32 x i8], align 16
  %4 = getelementptr inbounds nuw i8, ptr %1, i64 88
  %5 = load ptr, ptr %4, align 8
  %6 = load ptr, ptr %1, align 8
  %7 = getelementptr inbounds nuw i8, ptr %5, i64 32
  store ptr %6, ptr %7, align 8
  %8 = getelementptr inbounds nuw i8, ptr %5, i64 8
  %9 = load ptr, ptr %8, align 8
  %10 = sext i32 %0 to i64
  %11 = getelementptr inbounds i8, ptr %9, i64 %10
  %12 = load i8, ptr %11, align 1, !range !4, !noundef !5
  %13 = trunc nuw i8 %12 to i1
  %14 = getelementptr inbounds nuw i8, ptr %5, i64 16
  %15 = load ptr, ptr %14, align 8
  %16 = getelementptr inbounds %struct.StringInfoData, ptr %15, i64 %10
  br i1 %13, label %34, label %17

17:                                               ; preds = %2
  tail call void @initStringInfo(ptr noundef %16) #13
  %18 = load ptr, ptr %14, align 8
  %19 = getelementptr inbounds %struct.StringInfoData, ptr %18, i64 %10
  store ptr %19, ptr %1, align 8
  %20 = getelementptr inbounds nuw i8, ptr %1, i64 24
  %21 = load i32, ptr %20, align 8
  switch i32 %21, label %ExplainOpenSetAsideGroup.exit [
    i32 3, label %.sink.split.sink.split.i
    i32 1, label %.sink.split.i
    i32 2, label %.sink.split.sink.split.i
  ]

.sink.split.sink.split.i:                         ; preds = %17, %17
  %22 = getelementptr inbounds nuw i8, ptr %1, i64 32
  %23 = load ptr, ptr %22, align 8
  %24 = tail call ptr @lcons_int(i32 noundef 0, ptr noundef %23) #13
  store ptr %24, ptr %22, align 8
  %.pr.pre = load i32, ptr %20, align 8
  br label %.sink.split.i

.sink.split.i:                                    ; preds = %.sink.split.sink.split.i, %17
  %.pr = phi i32 [ %.pr.pre, %.sink.split.sink.split.i ], [ %21, %17 ]
  %25 = getelementptr inbounds nuw i8, ptr %1, i64 28
  %26 = load i32, ptr %25, align 4
  %27 = add i32 %26, 2
  store i32 %27, ptr %25, align 4
  br label %ExplainOpenSetAsideGroup.exit

ExplainOpenSetAsideGroup.exit:                    ; preds = %17, %.sink.split.i
  %28 = phi i32 [ %21, %17 ], [ %.pr, %.sink.split.i ]
  %.not = icmp eq i32 %28, 0
  br i1 %.not, label %31, label %29

29:                                               ; preds = %ExplainOpenSetAsideGroup.exit
  call void @llvm.lifetime.start.p0(i64 32, ptr nonnull %3) #13
  %30 = call i32 (ptr, i64, ptr, ...) @pg_snprintf(ptr noundef nonnull %3, i64 noundef 32, ptr noundef nonnull @.str.54, i64 noundef %10) #13
  call fastcc void @ExplainProperty(ptr noundef nonnull @.str.255, ptr noundef null, ptr noundef nonnull %3, i1 noundef zeroext true, ptr noundef nonnull readonly %1)
  call void @llvm.lifetime.end.p0(i64 32, ptr nonnull %3) #13
  br label %31

31:                                               ; preds = %29, %ExplainOpenSetAsideGroup.exit
  %32 = load ptr, ptr %8, align 8
  %33 = getelementptr inbounds i8, ptr %32, i64 %10
  store i8 1, ptr %33, align 1
  br label %ExplainRestoreGroup.exit

34:                                               ; preds = %2
  store ptr %16, ptr %1, align 8
  %35 = getelementptr inbounds nuw i8, ptr %1, i64 24
  %36 = load i32, ptr %35, align 8
  switch i32 %36, label %ExplainRestoreGroup.exit [
    i32 3, label %.sink.split.sink.split.i27
    i32 1, label %.sink.split.i28
    i32 2, label %.sink.split.sink.split.i27
  ]

.sink.split.sink.split.i27:                       ; preds = %34, %34
  %37 = getelementptr inbounds nuw i8, ptr %5, i64 24
  %38 = load ptr, ptr %37, align 8
  %39 = getelementptr inbounds i32, ptr %38, i64 %10
  %40 = load i32, ptr %39, align 4
  %41 = getelementptr inbounds nuw i8, ptr %1, i64 32
  %42 = load ptr, ptr %41, align 8
  %43 = tail call ptr @lcons_int(i32 noundef %40, ptr noundef %42) #13
  store ptr %43, ptr %41, align 8
  br label %.sink.split.i28

.sink.split.i28:                                  ; preds = %.sink.split.sink.split.i27, %34
  %44 = getelementptr inbounds nuw i8, ptr %1, i64 28
  %45 = load i32, ptr %44, align 4
  %46 = add i32 %45, 2
  store i32 %46, ptr %44, align 4
  br label %ExplainRestoreGroup.exit

ExplainRestoreGroup.exit:                         ; preds = %.sink.split.i28, %34, %31
  %47 = getelementptr inbounds nuw i8, ptr %1, i64 24
  %48 = load i32, ptr %47, align 8
  %49 = icmp eq i32 %48, 0
  br i1 %49, label %50, label %63

50:                                               ; preds = %ExplainRestoreGroup.exit
  %51 = load ptr, ptr %1, align 8
  %52 = getelementptr inbounds nuw i8, ptr %51, i64 8
  %53 = load i32, ptr %52, align 8
  %54 = icmp eq i32 %53, 0
  br i1 %54, label %ExplainIndentText.exit, label %59

ExplainIndentText.exit:                           ; preds = %50
  %55 = getelementptr inbounds nuw i8, ptr %1, i64 28
  %56 = load i32, ptr %55, align 4
  %57 = shl i32 %56, 1
  call void @appendStringInfoSpaces(ptr noundef nonnull %51, i32 noundef %57) #13
  %58 = load ptr, ptr %1, align 8
  call void (ptr, ptr, ...) @appendStringInfo(ptr noundef %58, ptr noundef nonnull @.str.256, i32 noundef %0) #13
  br label %59

59:                                               ; preds = %ExplainIndentText.exit, %50
  %60 = getelementptr inbounds nuw i8, ptr %1, i64 28
  %61 = load i32, ptr %60, align 4
  %62 = add i32 %61, 1
  store i32 %62, ptr %60, align 4
  br label %63

63:                                               ; preds = %59, %ExplainRestoreGroup.exit
  ret void
}